target datalayout = "e-m:e-p270:32:32-p271:32:32-p272:64:64-i64:64-i128:128-f80:128-n8:16:32:64-S128"
target triple = "x86_64-pc-linux-gnu"

%struct.Curl_easy = type { i32, i64, i64, ptr, %struct.Curl_llist_node, %struct.Curl_llist_node, i32, i32, %struct.Curl_message, %struct.easy_pollset, %struct.Names, ptr, ptr, ptr, ptr, %struct.SingleRequest, %struct.UserDefined, ptr, ptr, ptr, %struct.Progress, %struct.UrlState, ptr, %struct.PureInfo, %struct.curl_tlssessioninfo }
%struct.Curl_llist_node = type { ptr, ptr, ptr, ptr }
%struct.Curl_message = type { %struct.Curl_llist_node, %struct.CURLMsg }
%struct.CURLMsg = type { i32, ptr, %union.anon }
%union.anon = type { ptr }
%struct.easy_pollset = type { [5 x i32], i32, [5 x i8] }
%struct.Names = type { ptr, i32 }
%struct.SingleRequest = type <{ i64, i64, i64, i64, %struct.curltime, i32, i32, i32, i32, i64, i32, i32, i8, i8, [2 x i8], i32, ptr, ptr, %struct.bufq, i64, i64, ptr, ptr, %union.anon.0, ptr, i8, i32, [3 x i8] }>
%struct.curltime = type { i64, i32 }
%struct.bufq = type { ptr, ptr, ptr, ptr, i64, i64, i64, i32 }
%union.anon.0 = type { ptr }
%struct.UserDefined = type <{ ptr, ptr, ptr, ptr, ptr, ptr, i64, i64, i64, ptr, ptr, i64, ptr, ptr, ptr, ptr, ptr, ptr, ptr, ptr, ptr, ptr, ptr, ptr, ptr, ptr, ptr, ptr, ptr, ptr, ptr, ptr, ptr, ptr, ptr, i64, i64, i64, i64, i64, i64, i64, i64, i64, ptr, ptr, %struct.curl_mimepart, ptr, ptr, ptr, i64, %struct.ssl_config_data, %struct.ssl_config_data, ptr, i16, i8, i8, %struct.ssl_general_config, i32, i32, i32, [4 x i8], ptr, ptr, i64, i32, i8, i8, i8, i8, ptr, ptr, ptr, i32, [4 x i8], [74 x ptr], [8 x ptr], i32, i32, i32, [4 x i8], ptr, i32, [4 x i8], ptr, ptr, ptr, ptr, ptr, i32, i32, i32, i32, i32, i32, i32, i32, i64, ptr, ptr, i64, ptr, i64, ptr, ptr, ptr, ptr, i32, i16, i16, i16, i8, i8, i8, i8, i8, i8, i8, i8, i64, [6 x i8] }>
%struct.curl_mimepart = type { ptr, ptr, i32, i32, ptr, ptr, ptr, ptr, ptr, ptr, ptr, ptr, ptr, ptr, ptr, i64, %struct.mime_state, ptr, %struct.mime_encoder_state, i64 }
%struct.mime_state = type { i32, ptr, i64 }
%struct.mime_encoder_state = type { i64, i64, i64, [256 x i8] }
%struct.ssl_config_data = type { %struct.ssl_primary_config, i64, ptr, ptr, ptr, ptr, ptr, ptr, ptr, i16 }
%struct.ssl_primary_config = type { ptr, ptr, ptr, ptr, ptr, ptr, ptr, ptr, ptr, ptr, ptr, ptr, ptr, ptr, i8, i32, i8, i8 }
%struct.ssl_general_config = type { i32 }
%struct.Progress = type { i64, %struct.pgrs_dir, %struct.pgrs_dir, i64, i64, i32, i32, i64, i64, i64, i64, i64, i64, i64, i64, i64, %struct.curltime, %struct.curltime, %struct.curltime, %struct.curltime, %struct.curltime, [6 x i64], [6 x %struct.curltime], i32, i8 }
%struct.pgrs_dir = type { i64, i64, i64, %struct.pgrs_measure }
%struct.pgrs_measure = type { %struct.curltime, i64 }
%struct.UrlState = type { %struct.curltime, i64, i64, %struct.dynbuf, ptr, i64, ptr, i32, i32, i32, ptr, i32, i64, i32, ptr, %struct.digestdata, %struct.digestdata, %struct.auth, %struct.auth, %struct.Curl_async, ptr, i8, %struct.curltime, %struct.Curl_tree, %struct.Curl_llist, [15 x %struct.time_node], ptr, ptr, i64, i64, i64, i64, [32 x i8], i64, ptr, ptr, ptr, %struct.urlpieces, ptr, ptr, ptr, ptr, ptr, i64, %struct.dynbuf, %struct.Curl_llist, [2 x %struct.curl_header], ptr, i32, ptr, ptr, %struct.store_netrc, %struct.dynamically_allocated_data, i8, i8, i8, i8, i32 }
%struct.digestdata = type { ptr, ptr, ptr, ptr, ptr, ptr, i32, i8, i8 }
%struct.auth = type { i64, i64, i64, i8 }
%struct.Curl_async = type { ptr, ptr, ptr, ptr, i32, i32, i8 }
%struct.Curl_tree = type { ptr, ptr, ptr, ptr, %struct.curltime, ptr }
%struct.time_node = type { %struct.Curl_llist_node, %struct.curltime, i32 }
%struct.urlpieces = type { ptr, ptr, ptr, ptr, ptr, ptr, ptr, ptr }
%struct.dynbuf = type { ptr, i64, i64, i64 }
%struct.Curl_llist = type { ptr, ptr, ptr, i64 }
%struct.curl_header = type { ptr, ptr, i64, i64, i32, ptr }
%struct.store_netrc = type { %struct.dynbuf, ptr, i8 }
%struct.dynamically_allocated_data = type { ptr, ptr, ptr, ptr, ptr, ptr, ptr, ptr, ptr, ptr, ptr, ptr, ptr, ptr }
%struct.PureInfo = type { i32, i32, i32, i64, i64, i64, i64, i64, i64, i64, ptr, ptr, i64, i32, %struct.ip_quadruple, i32, ptr, i32, %struct.curl_certinfo, i32, i8 }
%struct.ip_quadruple = type { [46 x i8], [46 x i8], i32, i32 }
%struct.curl_certinfo = type { i32, ptr }
%struct.curl_tlssessioninfo = type { i32, ptr }
%struct.doh_probes = type { ptr, [2 x %struct.doh_probe], i32, i32, ptr }
%struct.doh_probe = type { i64, i32, [512 x i8], i64, %struct.dynbuf }
%struct.curl_trc_feat = type { ptr, i32 }

@.str.7 = private unnamed_addr constant [37 x i8] c"a DoH request is completed, %u to go\00", align 1
@.str.8 = private unnamed_addr constant [15 x i8] c"DoH request %s\00", align 1

; Function Attrs: nounwind uwtable
define internal i32 @doh_done(ptr noundef %0, i32 noundef %1) #0 {
  %3 = alloca ptr, align 8
  %4 = alloca i32, align 4
  %5 = alloca ptr, align 8
  %6 = alloca ptr, align 8
  store ptr %0, ptr %3, align 8, !tbaa !3
  store i32 %1, ptr %4, align 4, !tbaa !10
  call void @llvm.lifetime.start.p0(i64 8, ptr %5) #7
  %7 = load ptr, ptr %3, align 8, !tbaa !3
  %8 = getelementptr inbounds nuw %struct.Curl_easy, ptr %7, i32 0, i32 11
  %9 = load ptr, ptr %8, align 8, !tbaa !94
  %10 = load ptr, ptr %3, align 8, !tbaa !3
  %11 = getelementptr inbounds nuw %struct.Curl_easy, ptr %10, i32 0, i32 16
  %12 = getelementptr inbounds nuw %struct.UserDefined, ptr %11, i32 0, i32 102
  %13 = load i64, ptr %12, align 8, !tbaa !123
  %14 = call ptr @Curl_multi_get_handle(ptr noundef %9, i64 noundef %13)
  store ptr %14, ptr %5, align 8, !tbaa !3
  %15 = load ptr, ptr %5, align 8, !tbaa !3
  %16 = icmp ne ptr %15, null
  br i1 %16, label %24, label %17

17:                                               ; preds = %2
  br label %18

18:                                               ; preds = %17
  br label %19

19:                                               ; preds = %18
  br label %20

20:                                               ; preds = %19
  br label %21

21:                                               ; preds = %20
  br label %22

22:                                               ; preds = %21
  br label %23

23:                                               ; preds = %22
  br label %111

24:                                               ; preds = %2
  call void @llvm.lifetime.start.p0(i64 8, ptr %6) #7
  %25 = load ptr, ptr %5, align 8, !tbaa !3
  %26 = getelementptr inbounds nuw %struct.Curl_easy, ptr %25, i32 0, i32 15
  %27 = getelementptr inbounds nuw %struct.SingleRequest, ptr %26, i32 0, i32 24
  %28 = load ptr, ptr %27, align 8, !tbaa !83
  store ptr %28, ptr %6, align 8, !tbaa !84
  %29 = load ptr, ptr %6, align 8, !tbaa !84
  %30 = getelementptr inbounds nuw %struct.doh_probes, ptr %29, i32 0, i32 2
  %31 = load i32, ptr %30, align 8, !tbaa !95
  %32 = add i32 %31, -1
  store i32 %32, ptr %30, align 8, !tbaa !95
  br label %33

33:                                               ; preds = %24
  %34 = load ptr, ptr %3, align 8, !tbaa !3
  %35 = icmp ne ptr %34, null
  br i1 %35, label %36, label %64

36:                                               ; preds = %33
  %37 = load ptr, ptr %3, align 8, !tbaa !3
  %38 = getelementptr inbounds nuw %struct.Curl_easy, ptr %37, i32 0, i32 16
  %39 = getelementptr inbounds nuw %struct.UserDefined, ptr %38, i32 0, i32 119
  %40 = load i64, ptr %39, align 2
  %41 = lshr i64 %40, 31
  %42 = and i64 %41, 1
  %43 = trunc i64 %42 to i32
  %44 = icmp ne i32 %43, 0
  br i1 %44, label %45, label %64

45:                                               ; preds = %36
  %46 = load ptr, ptr %3, align 8, !tbaa !3
  %47 = getelementptr inbounds nuw %struct.Curl_easy, ptr %46, i32 0, i32 21
  %48 = getelementptr inbounds nuw %struct.UrlState, ptr %47, i32 0, i32 50
  %49 = load ptr, ptr %48, align 8, !tbaa !109
  %50 = icmp ne ptr %49, null
  br i1 %50, label %51, label %59

51:                                               ; preds = %45
  %52 = load ptr, ptr %3, align 8, !tbaa !3
  %53 = getelementptr inbounds nuw %struct.Curl_easy, ptr %52, i32 0, i32 21
  %54 = getelementptr inbounds nuw %struct.UrlState, ptr %53, i32 0, i32 50
  %55 = load ptr, ptr %54, align 8, !tbaa !109
  %56 = getelementptr inbounds nuw %struct.curl_trc_feat, ptr %55, i32 0, i32 1
  %57 = load i32, ptr %56, align 8, !tbaa !114
  %58 = icmp sge i32 %57, 1
  br i1 %58, label %59, label %64

59:                                               ; preds = %51, %45
  %60 = load ptr, ptr %3, align 8, !tbaa !3
  %61 = load ptr, ptr %6, align 8, !tbaa !84
  %62 = getelementptr inbounds nuw %struct.doh_probes, ptr %61, i32 0, i32 2
  %63 = load i32, ptr %62, align 8, !tbaa !95
  call void (ptr, ptr, ...) @Curl_infof(ptr noundef %60, ptr noundef @.str.7, i32 noundef %63)
  br label %64

64:                                               ; preds = %59, %51, %36, %33
  br label %65

65:                                               ; preds = %64
  br label %66

66:                                               ; preds = %65
  %67 = load i32, ptr %4, align 4, !tbaa !10
  %68 = icmp ne i32 %67, 0
  br i1 %68, label %69, label %103

69:                                               ; preds = %66
  br label %70

70:                                               ; preds = %69
  %71 = load ptr, ptr %3, align 8, !tbaa !3
  %72 = icmp ne ptr %71, null
  br i1 %72, label %73, label %100

73:                                               ; preds = %70
  %74 = load ptr, ptr %3, align 8, !tbaa !3
  %75 = getelementptr inbounds nuw %struct.Curl_easy, ptr %74, i32 0, i32 16
  %76 = getelementptr inbounds nuw %struct.UserDefined, ptr %75, i32 0, i32 119
  %77 = load i64, ptr %76, align 2
  %78 = lshr i64 %77, 31
  %79 = and i64 %78, 1
  %80 = trunc i64 %79 to i32
  %81 = icmp ne i32 %80, 0
  br i1 %81, label %82, label %100

82:                                               ; preds = %73
  %83 = load ptr, ptr %3, align 8, !tbaa !3
  %84 = getelementptr inbounds nuw %struct.Curl_easy, ptr %83, i32 0, i32 21
  %85 = getelementptr inbounds nuw %struct.UrlState, ptr %84, i32 0, i32 50
  %86 = load ptr, ptr %85, align 8, !tbaa !109
  %87 = icmp ne ptr %86, null
  br i1 %87, label %88, label %96

88:                                               ; preds = %82
  %89 = load ptr, ptr %3, align 8, !tbaa !3
  %90 = getelementptr inbounds nuw %struct.Curl_easy, ptr %89, i32 0, i32 21
  %91 = getelementptr inbounds nuw %struct.UrlState, ptr %90, i32 0, i32 50
  %92 = load ptr, ptr %91, align 8, !tbaa !109
  %93 = getelementptr inbounds nuw %struct.curl_trc_feat, ptr %92, i32 0, i32 1
  %94 = load i32, ptr %93, align 8, !tbaa !114
  %95 = icmp sge i32 %94, 1
  br i1 %95, label %96, label %100

96:                                               ; preds = %88, %82
  %97 = load ptr, ptr %3, align 8, !tbaa !3
  %98 = load i32, ptr %4, align 4, !tbaa !10
  %99 = call ptr @curl_easy_strerror(i32 noundef %98)
  call void (ptr, ptr, ...) @Curl_infof(ptr noundef %97, ptr noundef @.str.8, ptr noundef %99)
  br label %100

100:                                              ; preds = %96, %88, %73, %70
  br label %101

101:                                              ; preds = %100
  br label %102

102:                                              ; preds = %101
  br label %103

103:                                              ; preds = %102, %66
  %104 = load ptr, ptr %6, align 8, !tbaa !84
  %105 = getelementptr inbounds nuw %struct.doh_probes, ptr %104, i32 0, i32 2
  %106 = load i32, ptr %105, align 8, !tbaa !95
  %107 = icmp ne i32 %106, 0
  br i1 %107, label %110, label %108

108:                                              ; preds = %103
  %109 = load ptr, ptr %5, align 8, !tbaa !3
  call void @Curl_expire(ptr noundef %109, i64 noundef 0, i32 noundef 8)
  br label %110

110:                                              ; preds = %108, %103
  call void @llvm.lifetime.end.p0(i64 8, ptr %6) #7
  br label %111

111:                                              ; preds = %110, %23
  call void @llvm.lifetime.end.p0(i64 8, ptr %5) #7
  ret i32 0
}